target datalayout = "e-m:e-p270:32:32-p271:32:32-p272:64:64-i64:64-i128:128-f80:128-n8:16:32:64-S128"
target triple = "x86_64-pc-linux-gnu"

%struct.ssl_st = type { i32, i16, i16, ptr, ptr, ptr, ptr, ptr, i32, i32, ptr, ptr, i32, i32, ptr, ptr, ptr, ptr, ptr, ptr, ptr, ptr, i32, i32, [32 x i8], ptr, ptr, ptr, ptr, ptr, ptr, ptr, i64, %struct.crypto_ex_data_st, ptr, i32, i32, i32, i32, i16, ptr, i32, i64, ptr, ptr, ptr, ptr, ptr, ptr, i32, i32, ptr, ptr, i8, i8, i32 }
%struct.crypto_ex_data_st = type { ptr }
%struct.ssl3_state_st = type { [8 x i8], [8 x i8], [32 x i8], [32 x i8], i8, i8, %struct.ssl3_buffer_st, %struct.ssl3_buffer_st, %struct.ssl3_record_st, i8, i32, i32, i32, i32, ptr, ptr, %struct.env_md_ctx_st, %struct.env_md_ctx_st, i8, i32, [2 x i8], i32, i8, i8, ptr, ptr, ptr, %struct.anon, [64 x i8], i8, [64 x i8], i8, i32, i32, ptr, i64, ptr, i64, i8, [64 x i8] }
%struct.ssl3_buffer_st = type { ptr, i16, i16, i16 }
%struct.ssl3_record_st = type { i8, i16, ptr }
%struct.env_md_ctx_st = type { ptr, ptr, ptr, ptr }
%struct.anon = type { [64 x i8], i32, [64 x i8], i32, i64, i32, ptr, i32, i32, %union.anon, %union.anon.0, i8, i32, ptr, ptr, i64, ptr, i8, i8, i8, i8, i32, i8, ptr, i64, i8, ptr, i8, i8, i8, %struct.ssl_ecdh_ctx_st, ptr, i16 }
%union.anon = type { i32 }
%union.anon.0 = type { i16 }
%struct.ssl_ecdh_ctx_st = type { ptr, ptr }

; Function Attrs: nounwind uwtable
define internal void @ext_ocsp_init(ptr noundef %0) #0 {
  %2 = alloca ptr, align 8
  store ptr %0, ptr %2, align 8, !tbaa !69
  %3 = load ptr, ptr %2, align 8, !tbaa !69
  %4 = getelementptr inbounds nuw %struct.ssl_st, ptr %3, i32 0, i32 14
  %5 = load ptr, ptr %4, align 8, !tbaa !75
  %6 = getelementptr inbounds nuw %struct.ssl3_state_st, ptr %5, i32 0, i32 27
  %7 = getelementptr inbounds nuw %struct.anon, ptr %6, i32 0, i32 22
  %8 = load i8, ptr %7, align 8
  %9 = and i8 %8, -2
  %10 = or i8 %9, 0
  store i8 %10, ptr %7, align 8
  %11 = load ptr, ptr %2, align 8, !tbaa !69
  %12 = getelementptr inbounds nuw %struct.ssl_st, ptr %11, i32 0, i32 55
  store i32 -1, ptr %12, align 4, !tbaa !189
  ret void
}